target datalayout = "e-m:e-p270:32:32-p271:32:32-p272:64:64-i64:64-i128:128-f80:128-n8:16:32:64-S128"
target triple = "x86_64-pc-linux-gnu"

%struct.yy_buffer_state = type { ptr, ptr, ptr, i32, i32, i32, i32, i32, i32, i32, i32, i32 }

@H5LTyyin = global ptr null, align 8
@yy_buffer_stack = internal global ptr null, align 8
@yy_buffer_stack_top = internal global i64 0, align 8
@yy_c_buf_p = internal global ptr null, align 8
@yy_hold_char = internal global i8 0, align 1
@H5LTyytext = global ptr null, align 8
@yy_n_chars = internal global i32 0, align 4

; Function Attrs: nounwind uwtable
define internal void @H5LTyy_load_buffer_state() #0 {
  %1 = load ptr, ptr @yy_buffer_stack, align 8
  %2 = load i64, ptr @yy_buffer_stack_top, align 8
  %3 = getelementptr inbounds ptr, ptr %1, i64 %2
  %4 = load ptr, ptr %3, align 8
  %5 = getelementptr inbounds %struct.yy_buffer_state, ptr %4, i32 0, i32 4
  %6 = load i32, ptr %5, align 4
  store i32 %6, ptr @yy_n_chars, align 4
  %7 = load ptr, ptr @yy_buffer_stack, align 8
  %8 = load i64, ptr @yy_buffer_stack_top, align 8
  %9 = getelementptr inbounds ptr, ptr %7, i64 %8
  %10 = load ptr, ptr %9, align 8
  %11 = getelementptr inbounds %struct.yy_buffer_state, ptr %10, i32 0, i32 2
  %12 = load ptr, ptr %11, align 8
  store ptr %12, ptr @yy_c_buf_p, align 8
  store ptr %12, ptr @H5LTyytext, align 8
  %13 = load ptr, ptr @yy_buffer_stack, align 8
  %14 = load i64, ptr @yy_buffer_stack_top, align 8
  %15 = getelementptr inbounds ptr, ptr %13, i64 %14
  %16 = load ptr, ptr %15, align 8
  %17 = getelementptr inbounds %struct.yy_buffer_state, ptr %16, i32 0, i32 0
  %18 = load ptr, ptr %17, align 8
  store ptr %18, ptr @H5LTyyin, align 8
  %19 = load ptr, ptr @yy_c_buf_p, align 8
  %20 = load i8, ptr %19, align 1
  store i8 %20, ptr @yy_hold_char, align 1
  ret void
}

; Function Attrs: nounwind uwtable
define void @H5LTyy_flush_buffer(ptr noundef %0) #0 {
  %2 = alloca ptr, align 8
  store ptr %0, ptr %2, align 8
  %3 = load ptr, ptr %2, align 8
  %4 = icmp ne ptr %3, null
  br i1 %4, label %6, label %5

5:                                                ; preds = %1
  br label %40

6:                                                ; preds = %1
  %7 = load ptr, ptr %2, align 8
  %8 = getelementptr inbounds %struct.yy_buffer_state, ptr %7, i32 0, i32 4
  store i32 0, ptr %8, align 4
  %9 = load ptr, ptr %2, align 8
  %10 = getelementptr inbounds %struct.yy_buffer_state, ptr %9, i32 0, i32 1
  %11 = load ptr, ptr %10, align 8
  %12 = getelementptr inbounds i8, ptr %11, i64 0
  store i8 0, ptr %12, align 1
  %13 = load ptr, ptr %2, align 8
  %14 = getelementptr inbounds %struct.yy_buffer_state, ptr %13, i32 0, i32 1
  %15 = load ptr, ptr %14, align 8
  %16 = getelementptr inbounds i8, ptr %15, i64 1
  store i8 0, ptr %16, align 1
  %17 = load ptr, ptr %2, align 8
  %18 = getelementptr inbounds %struct.yy_buffer_state, ptr %17, i32 0, i32 1
  %19 = load ptr, ptr %18, align 8
  %20 = getelementptr inbounds i8, ptr %19, i64 0
  %21 = load ptr, ptr %2, align 8
  %22 = getelementptr inbounds %struct.yy_buffer_state, ptr %21, i32 0, i32 2
  store ptr %20, ptr %22, align 8
  %23 = load ptr, ptr %2, align 8
  %24 = getelementptr inbounds %struct.yy_buffer_state, ptr %23, i32 0, i32 7
  store i32 1, ptr %24, align 8
  %25 = load ptr, ptr %2, align 8
  %26 = getelementptr inbounds %struct.yy_buffer_state, ptr %25, i32 0, i32 11
  store i32 0, ptr %26, align 8
  %27 = load ptr, ptr %2, align 8
  %28 = load ptr, ptr @yy_buffer_stack, align 8
  %29 = icmp ne ptr %28, null
  br i1 %29, label %30, label %35

30:                                               ; preds = %6
  %31 = load ptr, ptr @yy_buffer_stack, align 8
  %32 = load i64, ptr @yy_buffer_stack_top, align 8
  %33 = getelementptr inbounds ptr, ptr %31, i64 %32
  %34 = load ptr, ptr %33, align 8
  br label %36

35:                                               ; preds = %6
  br label %36

36:                                               ; preds = %35, %30
  %37 = phi ptr [ %34, %30 ], [ null, %35 ]
  %38 = icmp eq ptr %27, %37
  br i1 %38, label %39, label %40

39:                                               ; preds = %36
  call void @H5LTyy_load_buffer_state()
  br label %40

40:                                               ; preds = %39, %36, %5
  ret void
}