; Function Attrs: mustprogress nofree norecurse nosync nounwind willreturn memory(readwrite, inaccessiblemem: none) uwtable
define void @H5LTyy_flush_buffer(ptr noundef %0) local_unnamed_addr #10 {
  %.not = icmp eq ptr %0, null
  br i1 %.not, label %31, label %2

2:                                                ; preds = %1
  %3 = getelementptr inbounds i8, ptr %0, i64 28
  store i32 0, ptr %3, align 4
  %4 = getelementptr inbounds i8, ptr %0, i64 8
  %5 = load ptr, ptr %4, align 8
  store i8 0, ptr %5, align 1
  %6 = load ptr, ptr %4, align 8
  %7 = getelementptr inbounds i8, ptr %6, i64 1
  store i8 0, ptr %7, align 1
  %8 = load ptr, ptr %4, align 8
  %9 = getelementptr inbounds i8, ptr %0, i64 16
  store ptr %8, ptr %9, align 8
  %10 = getelementptr inbounds i8, ptr %0, i64 40
  store i32 1, ptr %10, align 8
  %11 = getelementptr inbounds i8, ptr %0, i64 56
  store i32 0, ptr %11, align 8
  %12 = load ptr, ptr @yy_buffer_stack, align 8
  %.not10 = icmp eq ptr %12, null
  br i1 %.not10, label %17, label %13

13:                                               ; preds = %2
  %14 = load i64, ptr @yy_buffer_stack_top, align 8
  %15 = getelementptr inbounds ptr, ptr %12, i64 %14
  %16 = load ptr, ptr %15, align 8
  br label %17

17:                                               ; preds = %2, %13
  %18 = phi ptr [ %16, %13 ], [ null, %2 ]
  %19 = icmp eq ptr %18, %0
  br i1 %19, label %20, label %31

20:                                               ; preds = %17
  %21 = load i64, ptr @yy_buffer_stack_top, align 8
  %22 = getelementptr inbounds ptr, ptr %12, i64 %21
  %23 = load ptr, ptr %22, align 8
  %24 = getelementptr inbounds i8, ptr %23, i64 28
  %25 = load i32, ptr %24, align 4
  store i32 %25, ptr @yy_n_chars, align 4
  %26 = getelementptr inbounds i8, ptr %23, i64 16
  %27 = load ptr, ptr %26, align 8
  store ptr %27, ptr @yy_c_buf_p, align 8
  store ptr %27, ptr @H5LTyytext, align 8
  %28 = load ptr, ptr %22, align 8
  %29 = load ptr, ptr %28, align 8
  store ptr %29, ptr @H5LTyyin, align 8
  %30 = load i8, ptr %27, align 1
  store i8 %30, ptr @yy_hold_char, align 1
  br label %31

31:                                               ; preds = %1, %20, %17
  ret void
}